Certificate:
    Data:
        Version: 3 (0x2)
        Serial Number: 1 (0x1)
        Signature Algorithm: sha256WithRSAEncryption
        Issuer: C=GB, ST=Gloucester, L=Cheltenham, O=Knowledgespike CA, Limited, OU=Development, CN=Knowledgespike CA/emailAddress=kevin@knowledgespike.com
        Validity
            Not Before: Mar  5 07:25:12 2024 GMT
            Not After : Jun  8 07:25:12 2026 GMT
        Subject: C=GB, ST=Gloucester, L=Cheltenham, O=KnowledgeSpike, CN=knowledgespike.local
        Subject Public Key Info:
            Public Key Algorithm: rsaEncryption
                Public-Key: (2048 bit)
                Modulus:
                    00:e6:ef:9a:69:1e:10:24:c3:b0:08:b7:80:23:17:
                    f9:03:89:2e:9c:36:e5:0f:c0:40:ae:56:df:c4:c3:
                    e3:0f:7a:e3:d5:5b:be:5a:22:1a:a2:77:c0:74:d4:
                    cf:8e:e8:f3:f7:47:87:c3:88:fc:9b:82:17:b3:f2:
                    5b:d6:a1:05:8b:d5:b5:6b:93:c4:43:7f:77:1d:7e:
                    8a:dc:38:cd:50:d8:1c:86:4d:a7:fc:f9:a2:1d:0b:
                    89:e1:c2:f8:ca:0e:54:27:d5:cc:22:be:a3:c3:ea:
                    6e:f4:b1:56:34:e4:e4:c4:e5:f8:c2:eb:c3:3d:9d:
                    c7:16:85:5b:17:b1:95:c9:02:7c:7b:ca:a0:1e:87:
                    99:ac:85:ac:5e:58:f0:23:0b:5c:1d:ed:9d:e9:52:
                    3b:dd:bb:ba:90:09:f6:fa:94:e1:61:8d:ea:6b:61:
                    13:5e:ad:94:55:71:35:a4:09:dc:6c:dd:2f:ec:f3:
                    18:6c:53:7b:8d:db:64:15:d0:96:42:70:aa:e2:0d:
                    13:8b:d1:9a:e8:eb:1d:42:df:94:d5:b7:3a:c9:55:
                    59:3a:87:6e:fb:5d:30:57:3a:89:d1:91:4b:e3:bf:
                    ce:d8:98:db:51:f8:cb:aa:44:bd:e3:a4:d1:8f:89:
                    50:0a:39:e7:0c:0a:d9:57:89:98:59:c5:ad:d0:7f:
                    20:e5
                Exponent: 65537 (0x10001)
        X509v3 extensions:
            X509v3 Subject Key Identifier: 
                FF:1E:2D:21:A9:B2:6D:1F:A6:70:00:26:43:38:A4:E2:1A:2A:A7:31
            X509v3 Authority Key Identifier: 
                7B:43:F6:E8:2F:F4:41:5D:DB:9D:86:A6:3E:F0:D5:0C:D8:A8:F6:FF
            X509v3 Basic Constraints: 
                CA:FALSE
            X509v3 Key Usage: 
                Digital Signature, Key Encipherment
            X509v3 Subject Alternative Name: 
                DNS:localhost, DNS:localhost.local, DNS:knowledgespike.local, DNS:www.knowledgespike.local, DNS:dev.knowledgespike.local, DNS:ids.knowledgespike.local, DNS:adminui.knowledgespike.local, DNS:adminapi.knowledgespike.local, DNS:adminuiui.knowledgespike.local, DNS:adminuiapi.knowledgespike.local, DNS:expenses.knowledgespike.local, DNS:expensesapi.knowledgespike.local, DNS:cricket.knowledgespike.local, DNS:blog.knowledgespike.local, DNS:127.0.0.1, DNS:10.0.2.2, IP Address:127.0.0.1, IP Address:0:0:0:0:0:0:0:1
            Netscape Comment: 
                OpenSSL Generated Certificate
    Signature Algorithm: sha256WithRSAEncryption
    Signature Value:
        42:64:59:1b:2b:d9:c4:9a:22:22:b5:37:61:8f:8c:a0:1a:da:
        f6:51:bb:0c:f9:c4:5c:41:10:ed:b7:bb:3f:5d:1e:18:ed:12:
        14:87:ba:90:95:eb:fe:83:b3:2f:65:5d:4c:c6:0e:52:dd:45:
        12:04:8d:6a:04:a5:e9:b2:9a:e9:96:13:f3:f8:ea:d4:ac:5e:
        b5:a5:33:e6:41:c4:c7:56:dd:72:d2:fb:88:70:a4:f0:78:51:
        23:02:e9:2a:f5:ee:3a:bd:63:72:1a:e7:39:a8:95:33:34:69:
        e4:57:b2:00:1d:94:de:6c:47:27:b9:af:59:61:29:fb:ca:57:
        d9:71:4f:8b:6a:31:84:da:a8:f9:e7:dc:6d:96:94:bd:f1:d1:
        ef:1d:0c:70:5a:58:62:54:75:0f:3b:30:9e:fa:e5:ca:9a:0d:
        30:74:57:5c:b8:75:40:cf:a2:dd:d1:f4:56:92:74:03:e5:54:
        fc:30:bf:76:03:cd:43:74:3d:90:96:77:0a:53:1f:00:75:84:
        77:4f:96:78:ae:f0:b0:74:72:7e:9e:07:d8:86:5c:fc:62:4e:
        70:4a:1d:5a:70:e9:e0:ba:da:7a:4e:40:81:bb:08:cc:e1:21:
        cb:90:1c:5f:11:45:49:0f:c0:66:23:ed:e3:f1:be:b0:e7:b0:
        4e:6c:f8:d1:8f:7f:29:ae:3e:05:ef:6b:ff:28:02:bb:e2:da:
        0f:5d:71:f4:ad:10:1d:3d:a3:f2:0b:b5:b0:71:8e:87:84:29:
        06:00:e3:0f:07:06:42:d5:fc:6e:64:33:52:3b:54:5f:d2:e1:
        57:a9:85:e7:12:06:6a:f5:21:4d:9e:b3:9b:26:7a:da:22:db:
        b9:60:0b:f3:82:03:79:16:6e:b4:7f:21:1e:ff:52:95:23:c4:
        0f:eb:51:db:73:53:ff:99:f5:e3:79:0a:65:ea:91:cc:16:b9:
        81:49:31:0d:de:72:6e:4b:a2:d0:cf:c3:7b:85:36:0b:40:d0:
        d7:46:4c:54:bf:ba:44:1d:4e:8c:77:a4:55:9e:30:a0:65:2d:
        d6:fa:a5:00:7c:72:d8:39:e3:b8:04:a3:97:31:df:43:db:23:
        3b:be:3a:26:3b:86:1e:eb:a5:24:70:43:1e:f6:4e:65:0c:27:
        a8:82:2b:f7:26:19:b2:cb:fb:36:ca:3c:4e:36:d4:63:8d:30:
        c7:df:88:82:64:62:86:47:dd:08:75:be:60:0e:27:59:e3:61:
        57:02:7f:96:a8:af:e5:6a:3e:fa:7f:c3:2c:83:2b:c1:63:82:
        b9:27:44:ff:0a:d0:08:e0:cb:f7:06:25:78:47:ba:85:d7:27:
        ae:4b:c8:94:0d:06:25:37
-----BEGIN CERTIFICATE-----
MIIG5DCCBMygAwIBAgIBATANBgkqhkiG9w0BAQsFADCBtzELMAkGA1UEBhMCR0Ix
EzARBgNVBAgMCkdsb3VjZXN0ZXIxEzARBgNVBAcMCkNoZWx0ZW5oYW0xIzAhBgNV
BAoMGktub3dsZWRnZXNwaWtlIENBLCBMaW1pdGVkMRQwEgYDVQQLDAtEZXZlbG9w
bWVudDEaMBgGA1UEAwwRS25vd2xlZGdlc3Bpa2UgQ0ExJzAlBgkqhkiG9w0BCQEW
GGtldmluQGtub3dsZWRnZXNwaWtlLmNvbTAeFw0yNDAzMDUwNzI1MTJaFw0yNjA2
MDgwNzI1MTJaMG8xCzAJBgNVBAYTAkdCMRMwEQYDVQQIDApHbG91Y2VzdGVyMRMw
EQYDVQQHDApDaGVsdGVuaGFtMRcwFQYDVQQKDA5Lbm93bGVkZ2VTcGlrZTEdMBsG
A1UEAwwUa25vd2xlZGdlc3Bpa2UubG9jYWwwggEiMA0GCSqGSIb3DQEBAQUAA4IB
DwAwggEKAoIBAQDm75ppHhAkw7AIt4AjF/kDiS6cNuUPwECuVt/Ew+MPeuPVW75a
Ihqid8B01M+O6PP3R4fDiPybghez8lvWoQWL1bVrk8RDf3cdforcOM1Q2ByGTaf8
+aIdC4nhwvjKDlQn1cwivqPD6m70sVY05OTE5fjC68M9nccWhVsXsZXJAnx7yqAe
h5mshaxeWPAjC1wd7Z3pUjvdu7qQCfb6lOFhjeprYRNerZRVcTWkCdxs3S/s8xhs
U3uN22QV0JZCcKriDROL0Zro6x1C35TVtzrJVVk6h277XTBXOonRkUvjv87YmNtR
+MuqRL3jpNGPiVAKOecMCtlXiZhZxa3QfyDlAgMBAAGjggJAMIICPDAdBgNVHQ4E
FgQU/x4tIamybR+mcAAmQzik4hoqpzEwHwYDVR0jBBgwFoAUe0P26C/0QV3bnYam
PvDVDNio9v8wCQYDVR0TBAIwADALBgNVHQ8EBAMCBaAwggGyBgNVHREEggGpMIIB
pYIJbG9jYWxob3N0gg9sb2NhbGhvc3QubG9jYWyCFGtub3dsZWRnZXNwaWtlLmxv
Y2Fsghh3d3cua25vd2xlZGdlc3Bpa2UubG9jYWyCGGRldi5rbm93bGVkZ2VzcGlr
ZS5sb2NhbIIYaWRzLmtub3dsZWRnZXNwaWtlLmxvY2FsghxhZG1pbnVpLmtub3ds
ZWRnZXNwaWtlLmxvY2Fsgh1hZG1pbmFwaS5rbm93bGVkZ2VzcGlrZS5sb2NhbIIe
YWRtaW51aXVpLmtub3dsZWRnZXNwaWtlLmxvY2Fsgh9hZG1pbnVpYXBpLmtub3ds
ZWRnZXNwaWtlLmxvY2Fsgh1leHBlbnNlcy5rbm93bGVkZ2VzcGlrZS5sb2NhbIIg
ZXhwZW5zZXNhcGkua25vd2xlZGdlc3Bpa2UubG9jYWyCHGNyaWNrZXQua25vd2xl
ZGdlc3Bpa2UubG9jYWyCGWJsb2cua25vd2xlZGdlc3Bpa2UubG9jYWyCCTEyNy4w
LjAuMYIIMTAuMC4yLjKHBH8AAAGHEAAAAAAAAAAAAAAAAAAAAAEwLAYJYIZIAYb4
QgENBB8WHU9wZW5TU0wgR2VuZXJhdGVkIENlcnRpZmljYXRlMA0GCSqGSIb3DQEB
CwUAA4ICAQBCZFkbK9nEmiIitTdhj4ygGtr2UbsM+cRcQRDtt7s/XR4Y7RIUh7qQ
lev+g7MvZV1Mxg5S3UUSBI1qBKXpsprplhPz+OrUrF61pTPmQcTHVt1y0vuIcKTw
eFEjAukq9e46vWNyGuc5qJUzNGnkV7IAHZTebEcnua9ZYSn7ylfZcU+LajGE2qj5
59xtlpS98dHvHQxwWlhiVHUPOzCe+uXKmg0wdFdcuHVAz6Ld0fRWknQD5VT8ML92
A81DdD2QlncKUx8AdYR3T5Z4rvCwdHJ+ngfYhlz8Yk5wSh1acOngutp6TkCBuwjM
4SHLkBxfEUVJD8BmI+3j8b6w57BObPjRj38prj4F72v/KAK74toPXXH0rRAdPaPy
C7WwcY6HhCkGAOMPBwZC1fxuZDNSO1Rf0uFXqYXnEgZq9SFNnrObJnraItu5YAvz
ggN5Fm60fyEe/1KVI8QP61Hbc1P/mfXjeQpl6pHMFrmBSTEN3nJuS6LQz8N7hTYL
QNDXRkxUv7pEHU6Md6RVnjCgZS3W+qUAfHLYOeO4BKOXMd9D2yM7vjomO4Ye66Uk
cEMe9k5lDCeogiv3Jhmyy/s2yjxONtRjjTDH34iCZGKGR90Idb5gDidZ42FXAn+W
qK/laj76f8MsgyvBY4K5J0T/CtAI4Mv3BiV4R7qF1yeuS8iUDQYlNw==
-----END CERTIFICATE-----
